target datalayout = "e-m:e-p270:32:32-p271:32:32-p272:64:64-i64:64-i128:128-f80:128-n8:16:32:64-S128"
target triple = "x86_64-pc-linux-gnu"

%"class.vcg::Point3" = type { [3 x float] }
%"class.vcg::Trackball" = type <{ %"class.vcg::Transform", %"class.vcg::View", i32, ptr, ptr, ptr, %"class.std::map", %"class.vcg::Similarityf", %"class.vcg::Similarityf", %"class.vcg::Similarityf", %"class.vcg::Point3", [4 x i8], %"class.std::vector", i8, [3 x i8], i32, i32, %"class.vcg::Quaternion", i8, i8, [2 x i8], %"class.std::__cxx11::list", i32, i8, [3 x i8] }>
%"class.vcg::Transform" = type { %"class.vcg::Similarityf", %"class.vcg::Point3", float }
%"class.vcg::View" = type <{ %"class.vcg::Matrix44", %"class.vcg::Matrix44", %"class.vcg::Matrix44", %"class.vcg::Matrix44", [4 x i32], i8, [3 x i8] }>
%"class.vcg::Matrix44" = type { %"struct.std::array" }
%"struct.std::array" = type { [16 x float] }
%"class.std::map" = type { %"class.std::_Rb_tree" }
%"class.std::_Rb_tree" = type { %"struct.std::_Rb_tree<int, std::pair<const int, vcg::TrackMode *>, std::_Select1st<std::pair<const int, vcg::TrackMode *>>, std::less<int>>::_Rb_tree_impl" }
%"struct.std::_Rb_tree<int, std::pair<const int, vcg::TrackMode *>, std::_Select1st<std::pair<const int, vcg::TrackMode *>>, std::less<int>>::_Rb_tree_impl" = type { %"struct.std::_Rb_tree_key_compare", %"struct.std::_Rb_tree_header" }
%"struct.std::_Rb_tree_key_compare" = type { %"struct.std::less" }
%"struct.std::less" = type { i8 }
%"struct.std::_Rb_tree_header" = type { %"struct.std::_Rb_tree_node_base", i64 }
%"struct.std::_Rb_tree_node_base" = type { i32, ptr, ptr, ptr }
%"class.vcg::Similarityf" = type { %"class.vcg::Similarity" }
%"class.vcg::Similarity" = type { %"class.vcg::Quaternion", %"class.vcg::Point3", float }
%"class.std::vector" = type { %"struct.std::_Vector_base" }
%"struct.std::_Vector_base" = type { %"struct.std::_Vector_base<vcg::Point3<float>, std::allocator<vcg::Point3<float>>>::_Vector_impl" }
%"struct.std::_Vector_base<vcg::Point3<float>, std::allocator<vcg::Point3<float>>>::_Vector_impl" = type { %"struct.std::_Vector_base<vcg::Point3<float>, std::allocator<vcg::Point3<float>>>::_Vector_impl_data" }
%"struct.std::_Vector_base<vcg::Point3<float>, std::allocator<vcg::Point3<float>>>::_Vector_impl_data" = type { ptr, ptr, ptr }
%"class.vcg::Quaternion" = type { %"class.vcg::Point4" }
%"class.vcg::Point4" = type { [4 x float] }
%"class.std::__cxx11::list" = type { %"class.std::__cxx11::_List_base" }
%"class.std::__cxx11::_List_base" = type { %"struct.std::__cxx11::_List_base<vcg::Transform, std::allocator<vcg::Transform>>::_List_impl" }
%"struct.std::__cxx11::_List_base<vcg::Transform, std::allocator<vcg::Transform>>::_List_impl" = type { %"struct.std::__detail::_List_node_header" }
%"struct.std::__detail::_List_node_header" = type { %"struct.std::__detail::_List_node_base", i64 }
%"struct.std::__detail::_List_node_base" = type { ptr, ptr }

; Function Attrs: mustprogress nounwind uwtable
define linkonce_odr noundef nonnull align 4 dereferenceable(4) ptr @_ZN3vcg6Point3IfEixEi(ptr noundef nonnull align 4 dereferenceable(12) %0, i32 noundef %1) #0 comdat align 2 {
  %3 = alloca ptr, align 8
  %4 = alloca i32, align 4
  store ptr %0, ptr %3, align 8
  store i32 %1, ptr %4, align 4
  %5 = load ptr, ptr %3, align 8
  %6 = getelementptr inbounds %"class.vcg::Point3", ptr %5, i32 0, i32 0
  %7 = load i32, ptr %4, align 4
  %8 = sext i32 %7 to i64
  %9 = getelementptr inbounds [3 x float], ptr %6, i64 0, i64 %8
  ret ptr %9
}

; Function Attrs: mustprogress nounwind uwtable
define linkonce_odr noundef float @_ZSt3powff(float noundef %0, float noundef %1) #0 comdat {
  %3 = alloca float, align 4
  %4 = alloca float, align 4
  store float %0, ptr %3, align 4
  store float %1, ptr %4, align 4
  %5 = load float, ptr %3, align 4
  %6 = load float, ptr %4, align 4
  %7 = call float @powf(float noundef %5, float noundef %6) #7
  ret float %7
}

; Function Attrs: mustprogress nounwind uwtable
define noundef float @_ZN3vcg10trackutils9getDeltaYEPNS_9TrackballENS_6Point3IfEE(ptr noundef %0, <2 x float> %1, float %2) #1 {
  %4 = alloca %"class.vcg::Point3", align 4
  %5 = alloca { <2 x float>, float }, align 4
  %6 = alloca ptr, align 8
  %7 = alloca float, align 4
  %8 = getelementptr inbounds { <2 x float>, float }, ptr %5, i32 0, i32 0
  store <2 x float> %1, ptr %8, align 4
  %9 = getelementptr inbounds { <2 x float>, float }, ptr %5, i32 0, i32 1
  store float %2, ptr %9, align 4
  call void @llvm.memcpy.p0.p0.i64(ptr align 4 %4, ptr align 4 %5, i64 12, i1 false)
  store ptr %0, ptr %6, align 8
  %10 = load ptr, ptr %6, align 8
  %11 = getelementptr inbounds %"class.vcg::Trackball", ptr %10, i32 0, i32 1
  %12 = getelementptr inbounds %"class.vcg::View", ptr %11, i32 0, i32 4
  %13 = getelementptr inbounds [4 x i32], ptr %12, i64 0, i64 3
  %14 = load i32, ptr %13, align 4
  %15 = load ptr, ptr %6, align 8
  %16 = getelementptr inbounds %"class.vcg::Trackball", ptr %15, i32 0, i32 1
  %17 = getelementptr inbounds %"class.vcg::View", ptr %16, i32 0, i32 4
  %18 = getelementptr inbounds [4 x i32], ptr %17, i64 0, i64 1
  %19 = load i32, ptr %18, align 4
  %20 = sub nsw i32 %14, %19
  %21 = sitofp i32 %20 to float
  store float %21, ptr %7, align 4
  %22 = call noundef nonnull align 4 dereferenceable(4) ptr @_ZN3vcg6Point3IfEixEi(ptr noundef nonnull align 4 dereferenceable(12) %4, i32 noundef 1)
  %23 = load float, ptr %22, align 4
  %24 = load ptr, ptr %6, align 8
  %25 = getelementptr inbounds %"class.vcg::Trackball", ptr %24, i32 0, i32 10
  %26 = call noundef nonnull align 4 dereferenceable(4) ptr @_ZN3vcg6Point3IfEixEi(ptr noundef nonnull align 4 dereferenceable(12) %25, i32 noundef 1)
  %27 = load float, ptr %26, align 4
  %28 = fsub float %23, %27
  %29 = load float, ptr %7, align 4
  %30 = fdiv float %28, %29
  ret float %30
}

; Function Attrs: mustprogress nounwind uwtable
define void @_ZN3vcg9ScaleMode5ApplyEPNS_9TrackballENS_6Point3IfEE(ptr noundef nonnull align 8 dereferenceable(8) %0, ptr noundef %1, <2 x float> %2, float %3) unnamed_addr #1 align 2 {
  %5 = alloca %"class.vcg::Point3", align 4
  %6 = alloca { <2 x float>, float }, align 4
  %7 = alloca ptr, align 8
  %8 = alloca ptr, align 8
  %9 = alloca %"class.vcg::Point3", align 4
  %10 = alloca { <2 x float>, float }, align 4
  %11 = getelementptr inbounds { <2 x float>, float }, ptr %6, i32 0, i32 0
  store <2 x float> %2, ptr %11, align 4
  %12 = getelementptr inbounds { <2 x float>, float }, ptr %6, i32 0, i32 1
  store float %3, ptr %12, align 4
  call void @llvm.memcpy.p0.p0.i64(ptr align 4 %5, ptr align 4 %6, i64 12, i1 false)
  store ptr %0, ptr %7, align 8
  store ptr %1, ptr %8, align 8
  %13 = load ptr, ptr %8, align 8
  %14 = getelementptr inbounds %"class.vcg::Trackball", ptr %13, i32 0, i32 7
  %15 = getelementptr inbounds %"class.vcg::Similarity", ptr %14, i32 0, i32 2
  %16 = load float, ptr %15, align 4
  %17 = load ptr, ptr %8, align 8
  call void @llvm.memcpy.p0.p0.i64(ptr align 4 %9, ptr align 4 %5, i64 12, i1 false)
  call void @llvm.memcpy.p0.p0.i64(ptr align 4 %10, ptr align 4 %9, i64 12, i1 false)
  %18 = getelementptr inbounds { <2 x float>, float }, ptr %10, i32 0, i32 0
  %19 = load <2 x float>, ptr %18, align 4
  %20 = getelementptr inbounds { <2 x float>, float }, ptr %10, i32 0, i32 1
  %21 = load float, ptr %20, align 4
  %22 = call noundef float @_ZN3vcg10trackutils9getDeltaYEPNS_9TrackballENS_6Point3IfEE(ptr noundef %17, <2 x float> %19, float %21)
  %23 = fneg float %22
  %24 = call noundef float @_ZSt3powff(float noundef 3.000000e+00, float noundef %23)
  %25 = fmul float %16, %24
  %26 = load ptr, ptr %8, align 8
  %27 = getelementptr inbounds %"class.vcg::Transform", ptr %26, i32 0, i32 0
  %28 = getelementptr inbounds %"class.vcg::Similarity", ptr %27, i32 0, i32 2
  store float %25, ptr %28, align 4
  ret void
}