; Function Attrs: mustprogress nofree nounwind willreturn memory(write, argmem: readwrite) uwtable
define void @_ZN3vcg9ScaleMode5ApplyEPNS_9TrackballENS_6Point3IfEE(ptr nocapture nonnull readnone align 8 %0, ptr nocapture noundef %1, <2 x float> %2, float %3) unnamed_addr #5 align 2 {
  %5 = getelementptr inbounds i8, ptr %1, i64 428
  %6 = load float, ptr %5, align 4
  %7 = getelementptr inbounds i8, ptr %1, i64 316
  %8 = load i32, ptr %7, align 4
  %9 = getelementptr inbounds i8, ptr %1, i64 308
  %10 = load i32, ptr %9, align 4
  %11 = sub nsw i32 %8, %10
  %12 = sitofp i32 %11 to float
  %.sroa.0.4.vec.extract.i = extractelement <2 x float> %2, i64 1
  %13 = getelementptr inbounds i8, ptr %1, i64 500
  %14 = load float, ptr %13, align 4
  %15 = fsub float %.sroa.0.4.vec.extract.i, %14
  %16 = fneg float %15
  %17 = fdiv float %16, %12
  %18 = tail call noundef float @powf(float noundef 3.000000e+00, float noundef %17) #34
  %19 = fmul float %6, %18
  %20 = getelementptr inbounds i8, ptr %1, i64 28
  store float %19, ptr %20, align 4
  ret void
}